ARM GAS  C:\Users\alexa\AppData\Local\Temp\ccWzwmKt.s 			page 1


   1              		.cpu cortex-m4
   2              		.eabi_attribute 27, 1
   3              		.eabi_attribute 28, 1
   4              		.eabi_attribute 20, 1
   5              		.eabi_attribute 21, 1
   6              		.eabi_attribute 23, 3
   7              		.eabi_attribute 24, 1
   8              		.eabi_attribute 25, 1
   9              		.eabi_attribute 26, 1
  10              		.eabi_attribute 30, 2
  11              		.eabi_attribute 34, 1
  12              		.eabi_attribute 18, 4
  13              		.file	"play_sound_file.c"
  14              		.text
  15              	.Ltext0:
  16              		.cfi_sections	.debug_frame
  17              		.section	.text.end_cb,"ax",%progbits
  18              		.align	1
  19              		.p2align 4,,15
  20              		.syntax unified
  21              		.thumb
  22              		.thumb_func
  23              		.fpu fpv4-sp-d16
  24              		.type	end_cb, %function
  25              	end_cb:
  26              	.LFB257:
  27              		.file 1 ".//src/audio/play_sound_file.c"
  28              		.loc 1 55 0
  29              		.cfi_startproc
  30              		@ args = 0, pretend = 0, frame = 8
  31              		@ frame_needed = 0, uses_anonymous_args = 0
  32              	.LVL0:
  33 0000 70B5     		push	{r4, r5, r6, lr}
  34              		.cfi_def_cfa_offset 16
  35              		.cfi_offset 4, -16
  36              		.cfi_offset 5, -12
  37              		.cfi_offset 6, -8
  38              		.cfi_offset 14, -4
  39              		.loc 1 63 0
  40 0002 244B     		ldr	r3, .L19
  41              		.loc 1 55 0
  42 0004 244C     		ldr	r4, .L19+4
  43 0006 82B0     		sub	sp, sp, #8
  44              		.cfi_def_cfa_offset 24
  45              		.loc 1 55 0
  46 0008 2268     		ldr	r2, [r4]
  47              	.LVL1:
  48 000a 0192     		str	r2, [sp, #4]
  49              		.loc 1 63 0
  50 000c 9942     		cmp	r1, r3
  51 000e 2DD0     		beq	.L1
  52              		.loc 1 63 0 is_stmt 0 discriminator 1
  53 0010 224A     		ldr	r2, .L19+8
  54 0012 9142     		cmp	r1, r2
  55 0014 2AD0     		beq	.L1
  56              	.LVL2:
  57              	.LBB89:
ARM GAS  C:\Users\alexa\AppData\Local\Temp\ccWzwmKt.s 			page 2


  58              	.LBB90:
  59              		.loc 1 68 0 is_stmt 1
  60 0016 224D     		ldr	r5, .L19+12
  61 0018 2968     		ldr	r1, [r5]
  62              	.LVL3:
  63              		.loc 1 69 0
  64 001a 9942     		cmp	r1, r3
  65 001c 08BF     		it	eq
  66 001e 1346     		moveq	r3, r2
  67 0020 2B60     		str	r3, [r5]
  68              	.LVL4:
  69              	.LBB91:
  70              	.LBB92:
  71              	.LBB93:
  72              	.LBB94:
  73              	.LBB95:
  74              	.LBB96:
  75              		.file 2 ".//ChibiOS//os/ext/CMSIS/include/core_cmFunc.h"
  76              		.loc 2 546 0
  77 0022 2023     		movs	r3, #32
  78              		.syntax unified
  79              	@ 546 ".//ChibiOS//os/ext/CMSIS/include/core_cmFunc.h" 1
  80 0024 83F31188 		MSR basepri, r3
  81              	@ 0 "" 2
  82              	.LVL5:
  83              		.thumb
  84              		.syntax unified
  85              	.LBE96:
  86              	.LBE95:
  87              	.LBE94:
  88              	.LBE93:
  89              	.LBE92:
  90              	.LBE91:
  91              		.loc 1 76 0
  92 0028 1E4E     		ldr	r6, .L19+16
  93              	.LBB98:
  94              	.LBB97:
  95              		.file 3 ".//ChibiOS//os/rt/include/chsys.h"
  96              		.loc 3 389 0
  97 002a FFF7FEFF 		bl	_stats_start_measure_crit_isr
  98              	.LVL6:
  99              		.loc 3 390 0
 100 002e FFF7FEFF 		bl	_dbg_check_lock_from_isr
 101              	.LVL7:
 102              	.LBE97:
 103              	.LBE98:
 104              		.loc 1 76 0
 105 0032 3168     		ldr	r1, [r6]
 106 0034 01B3     		cbz	r1, .L5
 107              		.loc 1 79 0
 108 0036 0129     		cmp	r1, #1
 109 0038 24D9     		bls	.L10
 110 003a CB07     		lsls	r3, r1, #31
 111 003c 1FD4     		bmi	.L16
 112              	.L6:
 113              		.loc 1 82 0
 114 003e 2868     		ldr	r0, [r5]
ARM GAS  C:\Users\alexa\AppData\Local\Temp\ccWzwmKt.s 			page 3


 115 0040 4AF64442 		movw	r2, #44100
 116 0044 FFF7FEFF 		bl	dac_change_bufferI
 117              	.LVL8:
 118              		.loc 1 85 0
 119 0048 3368     		ldr	r3, [r6]
 120 004a FF2B     		cmp	r3, #255
 121              		.loc 1 86 0
 122 004c 9CBF     		itt	ls
 123 004e 0023     		movls	r3, #0
 124 0050 3360     		strls	r3, [r6]
 125              	.LVL9:
 126              	.LBB99:
 127              	.LBB100:
 128              		.file 4 ".//ChibiOS//os/rt/include/chbsem.h"
 129              		.loc 4 268 0
 130 0052 FFF7FEFF 		bl	chDbgCheckClassI
 131              	.LVL10:
 132              		.loc 4 270 0
 133 0056 1448     		ldr	r0, .L19+20
 134 0058 8368     		ldr	r3, [r0, #8]
 135 005a 002B     		cmp	r3, #0
 136 005c 14DD     		ble	.L17
 137              	.LVL11:
 138              	.L8:
 139              	.LBE100:
 140              	.LBE99:
 141              	.LBB102:
 142              	.LBB103:
 143              		.loc 3 408 0
 144 005e FFF7FEFF 		bl	_dbg_check_unlock_from_isr
 145              	.LVL12:
 146              		.loc 3 409 0
 147 0062 FFF7FEFF 		bl	_stats_stop_measure_crit_isr
 148              	.LVL13:
 149              	.LBB104:
 150              	.LBB105:
 151              	.LBB106:
 152              	.LBB107:
 153              		.loc 2 546 0
 154 0066 0023     		movs	r3, #0
 155              		.syntax unified
 156              	@ 546 ".//ChibiOS//os/ext/CMSIS/include/core_cmFunc.h" 1
 157 0068 83F31188 		MSR basepri, r3
 158              	@ 0 "" 2
 159              	.LVL14:
 160              		.thumb
 161              		.syntax unified
 162              	.L1:
 163              	.LBE107:
 164              	.LBE106:
 165              	.LBE105:
 166              	.LBE104:
 167              	.LBE103:
 168              	.LBE102:
 169              	.LBE90:
 170              	.LBE89:
 171              		.loc 1 94 0
ARM GAS  C:\Users\alexa\AppData\Local\Temp\ccWzwmKt.s 			page 4


 172 006c 019A     		ldr	r2, [sp, #4]
 173 006e 2368     		ldr	r3, [r4]
 174 0070 9A42     		cmp	r2, r3
 175 0072 0CD1     		bne	.L18
 176 0074 02B0     		add	sp, sp, #8
 177              		.cfi_remember_state
 178              		.cfi_def_cfa_offset 16
 179              		@ sp needed
 180 0076 70BD     		pop	{r4, r5, r6, pc}
 181              	.LVL15:
 182              	.L5:
 183              		.cfi_restore_state
 184              	.LBB110:
 185              	.LBB109:
 186              		.loc 1 91 0
 187 0078 FFF7FEFF 		bl	dac_stopI
 188              	.LVL16:
 189 007c EFE7     		b	.L8
 190              	.L16:
 191              		.loc 1 80 0
 192 007e 0139     		subs	r1, r1, #1
 193 0080 3160     		str	r1, [r6]
 194 0082 DCE7     		b	.L6
 195              	.L10:
 196              		.loc 1 79 0
 197 0084 0121     		movs	r1, #1
 198 0086 DAE7     		b	.L6
 199              	.LVL17:
 200              	.L17:
 201              	.LBB108:
 202              	.LBB101:
 203              		.loc 4 271 0
 204 0088 FFF7FEFF 		bl	chSemSignalI
 205              	.LVL18:
 206 008c E7E7     		b	.L8
 207              	.LVL19:
 208              	.L18:
 209              	.LBE101:
 210              	.LBE108:
 211              	.LBE109:
 212              	.LBE110:
 213              		.loc 1 94 0
 214 008e FFF7FEFF 		bl	__stack_chk_fail
 215              	.LVL20:
 216              	.L20:
 217 0092 00BF     		.align	2
 218              	.L19:
 219 0094 00000000 		.word	.LANCHOR0
 220 0098 00000000 		.word	__stack_chk_guard
 221 009c 00000000 		.word	.LANCHOR1
 222 00a0 00000000 		.word	.LANCHOR2
 223 00a4 00000000 		.word	.LANCHOR3
 224 00a8 00000000 		.word	.LANCHOR4
 225              		.cfi_endproc
 226              	.LFE257:
 227              		.size	end_cb, .-end_cb
 228              		.section	.text.waitSoundFileHasFinished.part.1,"ax",%progbits
ARM GAS  C:\Users\alexa\AppData\Local\Temp\ccWzwmKt.s 			page 5


 229              		.align	1
 230              		.p2align 4,,15
 231              		.syntax unified
 232              		.thumb
 233              		.thumb_func
 234              		.fpu fpv4-sp-d16
 235              		.type	waitSoundFileHasFinished.part.1, %function
 236              	waitSoundFileHasFinished.part.1:
 237              	.LFB266:
 238              		.loc 1 256 0
 239              		.cfi_startproc
 240              		@ args = 0, pretend = 0, frame = 8
 241              		@ frame_needed = 0, uses_anonymous_args = 0
 242 0000 10B5     		push	{r4, lr}
 243              		.cfi_def_cfa_offset 8
 244              		.cfi_offset 4, -8
 245              		.cfi_offset 14, -4
 246 0002 0B4C     		ldr	r4, .L26
 247              		.loc 1 260 0
 248 0004 0B48     		ldr	r0, .L26+4
 249              		.loc 1 256 0
 250 0006 2368     		ldr	r3, [r4]
 251 0008 82B0     		sub	sp, sp, #8
 252              		.cfi_def_cfa_offset 16
 253              		.loc 1 256 0
 254 000a 0193     		str	r3, [sp, #4]
 255              		.loc 1 260 0
 256 000c FFF7FEFF 		bl	chMtxLock
 257              	.LVL21:
 258              		.loc 1 261 0
 259 0010 0948     		ldr	r0, .L26+8
 260 0012 FFF7FEFF 		bl	chCondWait
 261              	.LVL22:
 262              		.loc 1 262 0
 263 0016 019A     		ldr	r2, [sp, #4]
 264 0018 2368     		ldr	r3, [r4]
 265 001a 9A42     		cmp	r2, r3
 266 001c 05D1     		bne	.L25
 267 001e 0548     		ldr	r0, .L26+4
 268              		.loc 1 264 0
 269 0020 02B0     		add	sp, sp, #8
 270              		.cfi_remember_state
 271              		.cfi_def_cfa_offset 8
 272              		@ sp needed
 273 0022 BDE81040 		pop	{r4, lr}
 274              		.cfi_restore 14
 275              		.cfi_restore 4
 276              		.cfi_def_cfa_offset 0
 277              		.loc 1 262 0
 278 0026 FFF7FEBF 		b	chMtxUnlock
 279              	.LVL23:
 280              	.L25:
 281              		.cfi_restore_state
 282 002a FFF7FEFF 		bl	__stack_chk_fail
 283              	.LVL24:
 284              	.L27:
 285 002e 00BF     		.align	2
ARM GAS  C:\Users\alexa\AppData\Local\Temp\ccWzwmKt.s 			page 6


 286              	.L26:
 287 0030 00000000 		.word	__stack_chk_guard
 288 0034 00000000 		.word	.LANCHOR5
 289 0038 00000000 		.word	.LANCHOR6
 290              		.cfi_endproc
 291              	.LFE266:
 292              		.size	waitSoundFileHasFinished.part.1, .-waitSoundFileHasFinished.part.1
 293              		.section	.text.playWAVFile,"ax",%progbits
 294              		.align	1
 295              		.p2align 4,,15
 296              		.global	playWAVFile
 297              		.syntax unified
 298              		.thumb
 299              		.thumb_func
 300              		.fpu fpv4-sp-d16
 301              		.type	playWAVFile, %function
 302              	playWAVFile:
 303              	.LFB258:
 304              		.loc 1 102 0
 305              		.cfi_startproc
 306              		@ args = 0, pretend = 0, frame = 560
 307              		@ frame_needed = 0, uses_anonymous_args = 0
 308              	.LVL25:
 309 0000 2DE9F04F 		push	{r4, r5, r6, r7, r8, r9, r10, fp, lr}
 310              		.cfi_def_cfa_offset 36
 311              		.cfi_offset 4, -36
 312              		.cfi_offset 5, -32
 313              		.cfi_offset 6, -28
 314              		.cfi_offset 7, -24
 315              		.cfi_offset 8, -20
 316              		.cfi_offset 9, -16
 317              		.cfi_offset 10, -12
 318              		.cfi_offset 11, -8
 319              		.cfi_offset 14, -4
 320 0004 3C4E     		ldr	r6, .L53
 321 0006 ADF50D7D 		sub	sp, sp, #564
 322              		.cfi_def_cfa_offset 600
 323              		.loc 1 102 0
 324 000a 3368     		ldr	r3, [r6]
 325 000c 8B93     		str	r3, [sp, #556]
 326              		.loc 1 106 0
 327 000e 0023     		movs	r3, #0
 328              		.loc 1 102 0
 329 0010 0446     		mov	r4, r0
 330              		.loc 1 106 0
 331 0012 0093     		str	r3, [sp]
 332              	.LVL26:
 333              		.loc 1 113 0
 334 0014 FFF7FEFF 		bl	mountSDCard
 335              	.LVL27:
 336 0018 40B9     		cbnz	r0, .L29
 337              	.LVL28:
 338              	.L50:
 339              		.loc 1 132 0
 340 001a 0120     		movs	r0, #1
 341              	.L30:
 342              		.loc 1 186 0
ARM GAS  C:\Users\alexa\AppData\Local\Temp\ccWzwmKt.s 			page 7


 343 001c 8B9A     		ldr	r2, [sp, #556]
 344 001e 3368     		ldr	r3, [r6]
 345 0020 9A42     		cmp	r2, r3
 346 0022 67D1     		bne	.L51
 347 0024 0DF50D7D 		add	sp, sp, #564
 348              		.cfi_remember_state
 349              		.cfi_def_cfa_offset 36
 350              		@ sp needed
 351 0028 BDE8F08F 		pop	{r4, r5, r6, r7, r8, r9, r10, fp, pc}
 352              	.LVL29:
 353              	.L29:
 354              		.cfi_restore_state
 355              		.loc 1 118 0
 356 002c 2146     		mov	r1, r4
 357 002e 01A8     		add	r0, sp, #4
 358 0030 0122     		movs	r2, #1
 359 0032 FFF7FEFF 		bl	f_open
 360              	.LVL30:
 361              		.loc 1 119 0
 362 0036 0028     		cmp	r0, #0
 363 0038 EFD1     		bne	.L50
 364              		.loc 1 124 0
 365 003a DFF8CC90 		ldr	r9, .L53+16
 366 003e 2F4C     		ldr	r4, .L53+4
 367              	.LVL31:
 368              		.loc 1 129 0
 369 0040 4946     		mov	r1, r9
 370 0042 6B46     		mov	r3, sp
 371 0044 2C22     		movs	r2, #44
 372 0046 01A8     		add	r0, sp, #4
 373              	.LVL32:
 374              		.loc 1 124 0
 375 0048 C4F80090 		str	r9, [r4]
 376              	.LVL33:
 377              		.loc 1 129 0
 378 004c FFF7FEFF 		bl	f_read
 379              	.LVL34:
 380              		.loc 1 130 0
 381 0050 0028     		cmp	r0, #0
 382 0052 48D1     		bne	.L35
 383 0054 DFF8BCA0 		ldr	r10, .L53+28
 384              		.loc 1 152 0
 385 0058 DFF8BC80 		ldr	r8, .L53+32
 386              		.loc 1 158 0
 387 005c DFF8BCB0 		ldr	fp, .L53+36
 388 0060 274D     		ldr	r5, .L53+8
 389              		.loc 1 125 0
 390 0062 4C46     		mov	r4, r9
 391              		.loc 1 107 0
 392 0064 0127     		movs	r7, #1
 393              	.LVL35:
 394              	.L32:
 395              		.loc 1 138 0
 396 0066 9AF80030 		ldrb	r3, [r10]	@ zero_extendqisi2
 397 006a 002B     		cmp	r3, #0
 398 006c 3FD0     		beq	.L52
 399              		.loc 1 145 0
ARM GAS  C:\Users\alexa\AppData\Local\Temp\ccWzwmKt.s 			page 8


 400 006e 6B46     		mov	r3, sp
 401 0070 4FF40072 		mov	r2, #512
 402 0074 2146     		mov	r1, r4
 403 0076 01A8     		add	r0, sp, #4
 404 0078 FFF7FEFF 		bl	f_read
 405              	.LVL36:
 406              		.loc 1 146 0
 407 007c 98BB     		cbnz	r0, .L35
 408              		.loc 1 152 0
 409 007e 0099     		ldr	r1, [sp]
 410 0080 4908     		lsrs	r1, r1, #1
 411 0082 C8F80010 		str	r1, [r8]
 412              	.LVL37:
 413              		.loc 1 156 0
 414 0086 99B1     		cbz	r1, .L36
 415              		.loc 1 158 0
 416 0088 9BF800C0 		ldrb	ip, [fp]	@ zero_extendqisi2
 417              		.loc 1 156 0
 418 008c 0246     		mov	r2, r0
 419              	.LVL38:
 420              	.L37:
 421              		.loc 1 157 0 discriminator 3
 422 008e 34F91230 		ldrsh	r3, [r4, r2, lsl #1]
 423 0092 03F50043 		add	r3, r3, #32768
 424 0096 1B11     		asrs	r3, r3, #4
 425              		.loc 1 158 0 discriminator 3
 426 0098 0CFB03F3 		mul	r3, ip, r3
 427              		.loc 1 156 0 discriminator 3
 428 009c 0130     		adds	r0, r0, #1
 429              	.LVL39:
 430 009e 80B2     		uxth	r0, r0
 431              	.LVL40:
 432              		.loc 1 158 0 discriminator 3
 433 00a0 A5FB03E3 		umull	lr, r3, r5, r3
 434 00a4 5B09     		lsrs	r3, r3, #5
 435              		.loc 1 156 0 discriminator 3
 436 00a6 8142     		cmp	r1, r0
 437              		.loc 1 158 0 discriminator 3
 438 00a8 24F81230 		strh	r3, [r4, r2, lsl #1]	@ movhi
 439              		.loc 1 156 0 discriminator 3
 440 00ac 0246     		mov	r2, r0
 441 00ae EED8     		bhi	.L37
 442              	.LVL41:
 443              	.L36:
 444              		.loc 1 164 0
 445 00b0 AFB1     		cbz	r7, .L38
 446              		.loc 1 165 0
 447 00b2 124A     		ldr	r2, .L53+4
 448 00b4 134B     		ldr	r3, .L53+12
 449 00b6 1068     		ldr	r0, [r2]
 450 00b8 4AF64442 		movw	r2, #44100
 451 00bc FFF7FEFF 		bl	dac_play_buffer
 452              	.LVL42:
 453              	.L39:
 454              		.loc 1 178 0
 455 00c0 D8F80030 		ldr	r3, [r8]
 456              		.loc 1 172 0
ARM GAS  C:\Users\alexa\AppData\Local\Temp\ccWzwmKt.s 			page 9


 457 00c4 4C45     		cmp	r4, r9
 458              		.loc 1 175 0
 459 00c6 14BF     		ite	ne
 460 00c8 0F4C     		ldrne	r4, .L53+16
 461              	.LVL43:
 462              		.loc 1 173 0
 463 00ca 104C     		ldreq	r4, .L53+20
 464              	.LVL44:
 465              		.loc 1 178 0
 466 00cc FF2B     		cmp	r3, #255
 467 00ce 4FF00007 		mov	r7, #0
 468 00d2 C8D8     		bhi	.L32
 469              	.LVL45:
 470              	.L34:
 471              		.loc 1 182 0
 472 00d4 01A8     		add	r0, sp, #4
 473 00d6 FFF7FEFF 		bl	f_close
 474              	.LVL46:
 475              		.loc 1 184 0
 476 00da 0020     		movs	r0, #0
 477 00dc 9EE7     		b	.L30
 478              	.LVL47:
 479              	.L38:
 480              	.LBB111:
 481              	.LBB112:
 482              		.loc 4 143 0
 483 00de 0C48     		ldr	r0, .L53+24
 484 00e0 FFF7FEFF 		bl	chSemWait
 485              	.LVL48:
 486 00e4 ECE7     		b	.L39
 487              	.LVL49:
 488              	.L35:
 489              	.LBE112:
 490              	.LBE111:
 491              		.loc 1 131 0
 492 00e6 01A8     		add	r0, sp, #4
 493              	.LVL50:
 494 00e8 FFF7FEFF 		bl	f_close
 495              	.LVL51:
 496 00ec 95E7     		b	.L50
 497              	.LVL52:
 498              	.L52:
 499              		.loc 1 140 0
 500 00ee FFF7FEFF 		bl	dac_stop
 501              	.LVL53:
 502              		.loc 1 141 0
 503 00f2 EFE7     		b	.L34
 504              	.LVL54:
 505              	.L51:
 506              		.loc 1 186 0
 507 00f4 FFF7FEFF 		bl	__stack_chk_fail
 508              	.LVL55:
 509              	.L54:
 510              		.align	2
 511              	.L53:
 512 00f8 00000000 		.word	__stack_chk_guard
 513 00fc 00000000 		.word	.LANCHOR2
ARM GAS  C:\Users\alexa\AppData\Local\Temp\ccWzwmKt.s 			page 10


 514 0100 1F85EB51 		.word	1374389535
 515 0104 00000000 		.word	end_cb
 516 0108 00000000 		.word	.LANCHOR0
 517 010c 00000000 		.word	.LANCHOR1
 518 0110 00000000 		.word	.LANCHOR4
 519 0114 00000000 		.word	.LANCHOR7
 520 0118 00000000 		.word	.LANCHOR3
 521 011c 00000000 		.word	.LANCHOR8
 522              		.cfi_endproc
 523              	.LFE258:
 524              		.size	playWAVFile, .-playWAVFile
 525              		.section	.text.PlaySoundFileThd,"ax",%progbits
 526              		.align	1
 527              		.p2align 4,,15
 528              		.syntax unified
 529              		.thumb
 530              		.thumb_func
 531              		.fpu fpv4-sp-d16
 532              		.type	PlaySoundFileThd, %function
 533              	PlaySoundFileThd:
 534              	.LFB259:
 535              		.loc 1 189 0
 536              		.cfi_startproc
 537              		@ args = 0, pretend = 0, frame = 8
 538              		@ frame_needed = 0, uses_anonymous_args = 0
 539              	.LVL56:
 540 0000 2DE9F047 		push	{r4, r5, r6, r7, r8, r9, r10, lr}
 541              		.cfi_def_cfa_offset 32
 542              		.cfi_offset 4, -32
 543              		.cfi_offset 5, -28
 544              		.cfi_offset 6, -24
 545              		.cfi_offset 7, -20
 546              		.cfi_offset 8, -16
 547              		.cfi_offset 9, -12
 548              		.cfi_offset 10, -8
 549              		.cfi_offset 14, -4
 550              	.LBB125:
 551              	.LBB126:
 552              		.file 5 ".//ChibiOS//os/rt/include/chregistry.h"
 553              		.loc 5 135 0
 554 0004 1C4D     		ldr	r5, .L60
 555              	.LBE126:
 556              	.LBE125:
 557              		.loc 1 189 0
 558 0006 1D4B     		ldr	r3, .L60+4
 559              	.LBB129:
 560              	.LBB127:
 561              		.loc 5 135 0
 562 0008 AA69     		ldr	r2, [r5, #24]
 563 000a 1D49     		ldr	r1, .L60+8
 564              	.LBE127:
 565              	.LBE129:
 566              		.loc 1 189 0
 567 000c 1B68     		ldr	r3, [r3]
 568 000e DFF87890 		ldr	r9, .L60+16
 569              		.loc 1 200 0
 570 0012 DFF87880 		ldr	r8, .L60+20
ARM GAS  C:\Users\alexa\AppData\Local\Temp\ccWzwmKt.s 			page 11


 571              	.LBB130:
 572              	.LBB131:
 573              		.loc 3 367 0
 574 0016 DFF878A0 		ldr	r10, .L60+24
 575              	.LBE131:
 576              	.LBE130:
 577              		.loc 1 208 0
 578 001a 1A4F     		ldr	r7, .L60+12
 579              	.LBB139:
 580              	.LBB128:
 581              		.loc 5 135 0
 582 001c 9161     		str	r1, [r2, #24]
 583              	.LBE128:
 584              	.LBE139:
 585              		.loc 1 189 0
 586 001e 82B0     		sub	sp, sp, #8
 587              		.cfi_def_cfa_offset 40
 588              		.loc 1 189 0
 589 0020 0193     		str	r3, [sp, #4]
 590              	.LVL57:
 591              	.L57:
 592              	.LBB140:
 593              	.LBB141:
 594              	.LBB142:
 595              	.LBB143:
 596              	.LBB144:
 597              		.loc 2 546 0 discriminator 1
 598 0022 2023     		movs	r3, #32
 599              		.syntax unified
 600              	@ 546 ".//ChibiOS//os/ext/CMSIS/include/core_cmFunc.h" 1
 601 0024 83F31188 		MSR basepri, r3
 602              	@ 0 "" 2
 603              	.LVL58:
 604              		.thumb
 605              		.syntax unified
 606              	.LBE144:
 607              	.LBE143:
 608              	.LBE142:
 609              		.loc 3 349 0 discriminator 1
 610 0028 FFF7FEFF 		bl	_stats_start_measure_crit_thd
 611              	.LVL59:
 612              		.loc 3 350 0 discriminator 1
 613 002c FFF7FEFF 		bl	_dbg_check_lock
 614              	.LVL60:
 615              	.LBE141:
 616              	.LBE140:
 617              		.loc 1 200 0 discriminator 1
 618 0030 4046     		mov	r0, r8
 619 0032 FFF7FEFF 		bl	chThdSuspendS
 620              	.LVL61:
 621 0036 0646     		mov	r6, r0
 622              	.LVL62:
 623              	.LBB145:
 624              	.LBB138:
 625              		.loc 3 360 0 discriminator 1
 626 0038 FFF7FEFF 		bl	_dbg_check_unlock
 627              	.LVL63:
ARM GAS  C:\Users\alexa\AppData\Local\Temp\ccWzwmKt.s 			page 12


 628              		.loc 3 361 0 discriminator 1
 629 003c FFF7FEFF 		bl	_stats_stop_measure_crit_thd
 630              	.LVL64:
 631              		.loc 3 367 0 discriminator 1
 632 0040 2B68     		ldr	r3, [r5]
 633 0042 AB42     		cmp	r3, r5
 634              	.LBB132:
 635              	.LBB133:
 636              	.LBB134:
 637              		.loc 2 546 0 discriminator 1
 638 0044 4FF00004 		mov	r4, #0
 639              	.LBE134:
 640              	.LBE133:
 641              	.LBE132:
 642              		.loc 3 367 0 discriminator 1
 643 0048 07D0     		beq	.L56
 644              		.loc 3 367 0 is_stmt 0
 645 004a AA69     		ldr	r2, [r5, #24]
 646 004c 9B68     		ldr	r3, [r3, #8]
 647 004e 9268     		ldr	r2, [r2, #8]
 648 0050 9A42     		cmp	r2, r3
 649 0052 02D2     		bcs	.L56
 650 0054 5046     		mov	r0, r10
 651 0056 FFF7FEFF 		bl	chSysHalt
 652              	.LVL65:
 653              	.L56:
 654              	.LBB137:
 655              	.LBB136:
 656              	.LBB135:
 657              		.loc 2 546 0 is_stmt 1
 658              		.syntax unified
 659              	@ 546 ".//ChibiOS//os/ext/CMSIS/include/core_cmFunc.h" 1
 660 005a 84F31188 		MSR basepri, r4
 661              	@ 0 "" 2
 662              	.LVL66:
 663              		.thumb
 664              		.syntax unified
 665              	.LBE135:
 666              	.LBE136:
 667              	.LBE137:
 668              	.LBE138:
 669              	.LBE145:
 670              		.loc 1 203 0
 671 005e 3046     		mov	r0, r6
 672 0060 FFF7FEFF 		bl	playWAVFile
 673              	.LVL67:
 674              		.loc 1 206 0
 675 0064 0A20     		movs	r0, #10
 676              		.loc 1 204 0
 677 0066 89F80040 		strb	r4, [r9]
 678              		.loc 1 206 0
 679 006a FFF7FEFF 		bl	chThdSleep
 680              	.LVL68:
 681              		.loc 1 208 0
 682 006e 3846     		mov	r0, r7
 683 0070 FFF7FEFF 		bl	chCondBroadcast
 684              	.LVL69:
ARM GAS  C:\Users\alexa\AppData\Local\Temp\ccWzwmKt.s 			page 13


 685 0074 D5E7     		b	.L57
 686              	.L61:
 687 0076 00BF     		.align	2
 688              	.L60:
 689 0078 00000000 		.word	ch
 690 007c 00000000 		.word	__stack_chk_guard
 691 0080 00000000 		.word	.LC0
 692 0084 00000000 		.word	.LANCHOR6
 693 0088 00000000 		.word	.LANCHOR7
 694 008c 00000000 		.word	.LANCHOR9
 695 0090 00000000 		.word	.LANCHOR10
 696              		.cfi_endproc
 697              	.LFE259:
 698              		.size	PlaySoundFileThd, .-PlaySoundFileThd
 699              		.section	.text.playSoundFileStart,"ax",%progbits
 700              		.align	1
 701              		.p2align 4,,15
 702              		.global	playSoundFileStart
 703              		.syntax unified
 704              		.thumb
 705              		.thumb_func
 706              		.fpu fpv4-sp-d16
 707              		.type	playSoundFileStart, %function
 708              	playSoundFileStart:
 709              	.LFB260:
 710              		.loc 1 215 0
 711              		.cfi_startproc
 712              		@ args = 0, pretend = 0, frame = 8
 713              		@ frame_needed = 0, uses_anonymous_args = 0
 714 0000 10B5     		push	{r4, lr}
 715              		.cfi_def_cfa_offset 8
 716              		.cfi_offset 4, -8
 717              		.cfi_offset 14, -4
 718 0002 0A4C     		ldr	r4, .L66
 719              		.loc 1 218 0
 720 0004 0A4B     		ldr	r3, .L66+4
 721              		.loc 1 215 0
 722 0006 2268     		ldr	r2, [r4]
 723              		.loc 1 218 0
 724 0008 0A48     		ldr	r0, .L66+8
 725              		.loc 1 215 0
 726 000a 84B0     		sub	sp, sp, #16
 727              		.cfi_def_cfa_offset 24
 728              		.loc 1 218 0
 729 000c 4FF4EF61 		mov	r1, #1912
 730              		.loc 1 215 0
 731 0010 0392     		str	r2, [sp, #12]
 732              		.loc 1 218 0
 733 0012 0022     		movs	r2, #0
 734 0014 0092     		str	r2, [sp]
 735 0016 4022     		movs	r2, #64
 736 0018 FFF7FEFF 		bl	chThdCreateStatic
 737              	.LVL70:
 738              		.loc 1 219 0
 739 001c 039A     		ldr	r2, [sp, #12]
 740 001e 2368     		ldr	r3, [r4]
 741 0020 9A42     		cmp	r2, r3
ARM GAS  C:\Users\alexa\AppData\Local\Temp\ccWzwmKt.s 			page 14


 742 0022 01D1     		bne	.L65
 743 0024 04B0     		add	sp, sp, #16
 744              		.cfi_remember_state
 745              		.cfi_def_cfa_offset 8
 746              		@ sp needed
 747 0026 10BD     		pop	{r4, pc}
 748              	.L65:
 749              		.cfi_restore_state
 750 0028 FFF7FEFF 		bl	__stack_chk_fail
 751              	.LVL71:
 752              	.L67:
 753              		.align	2
 754              	.L66:
 755 002c 00000000 		.word	__stack_chk_guard
 756 0030 00000000 		.word	PlaySoundFileThd
 757 0034 00000000 		.word	.LANCHOR11
 758              		.cfi_endproc
 759              	.LFE260:
 760              		.size	playSoundFileStart, .-playSoundFileStart
 761              		.section	.text.playSoundFile,"ax",%progbits
 762              		.align	1
 763              		.p2align 4,,15
 764              		.global	playSoundFile
 765              		.syntax unified
 766              		.thumb
 767              		.thumb_func
 768              		.fpu fpv4-sp-d16
 769              		.type	playSoundFile, %function
 770              	playSoundFile:
 771              	.LFB261:
 772              		.loc 1 221 0
 773              		.cfi_startproc
 774              		@ args = 0, pretend = 0, frame = 8
 775              		@ frame_needed = 0, uses_anonymous_args = 0
 776              	.LVL72:
 777 0000 70B5     		push	{r4, r5, r6, lr}
 778              		.cfi_def_cfa_offset 16
 779              		.cfi_offset 4, -16
 780              		.cfi_offset 5, -12
 781              		.cfi_offset 6, -8
 782              		.cfi_offset 14, -4
 783 0002 184C     		ldr	r4, .L87
 784 0004 82B0     		sub	sp, sp, #8
 785              		.cfi_def_cfa_offset 24
 786              		.loc 1 221 0
 787 0006 2368     		ldr	r3, [r4]
 788 0008 0193     		str	r3, [sp, #4]
 789              		.loc 1 223 0
 790 000a F0B1     		cbz	r0, .L68
 791 000c 0E46     		mov	r6, r1
 792 000e 0546     		mov	r5, r0
 793              		.loc 1 228 0
 794 0010 FFF7FEFF 		bl	stopCurrentMelody
 795              	.LVL73:
 796              		.loc 1 229 0
 797 0014 FFF7FEFF 		bl	waitMelodyHasFinished
 798              	.LVL74:
ARM GAS  C:\Users\alexa\AppData\Local\Temp\ccWzwmKt.s 			page 15


 799              		.loc 1 232 0
 800 0018 A6B1     		cbz	r6, .L84
 801              		.loc 1 242 0
 802 001a 022E     		cmp	r6, #2
 803              	.LBB146:
 804              	.LBB147:
 805              		.loc 1 253 0
 806 001c 124E     		ldr	r6, .L87+4
 807 001e 04BF     		itt	eq
 808 0020 0023     		moveq	r3, #0
 809 0022 3370     		strbeq	r3, [r6]
 810              	.LBE147:
 811              	.LBE146:
 812              	.LBB148:
 813              	.LBB149:
 814              		.loc 1 258 0
 815 0024 114B     		ldr	r3, .L87+8
 816 0026 1B68     		ldr	r3, [r3]
 817 0028 BBB1     		cbz	r3, .L85
 818              	.L75:
 819              	.LBE149:
 820              	.LBE148:
 821              		.loc 1 238 0
 822 002a 019A     		ldr	r2, [sp, #4]
 823 002c 2368     		ldr	r3, [r4]
 824              		.loc 1 236 0
 825 002e 0121     		movs	r1, #1
 826              		.loc 1 238 0
 827 0030 9A42     		cmp	r2, r3
 828              		.loc 1 236 0
 829 0032 3170     		strb	r1, [r6]
 830              		.loc 1 238 0
 831 0034 14D1     		bne	.L83
 832 0036 0D48     		ldr	r0, .L87+8
 833 0038 2946     		mov	r1, r5
 834              		.loc 1 250 0
 835 003a 02B0     		add	sp, sp, #8
 836              		.cfi_remember_state
 837              		.cfi_def_cfa_offset 16
 838              		@ sp needed
 839 003c BDE87040 		pop	{r4, r5, r6, lr}
 840              		.cfi_restore 14
 841              		.cfi_restore 6
 842              		.cfi_restore 5
 843              		.cfi_restore 4
 844              		.cfi_def_cfa_offset 0
 845              	.LVL75:
 846              		.loc 1 238 0
 847 0040 FFF7FEBF 		b	chThdResume
 848              	.LVL76:
 849              	.L84:
 850              		.cfi_restore_state
 851              		.loc 1 235 0
 852 0044 094B     		ldr	r3, .L87+8
 853 0046 1B68     		ldr	r3, [r3]
 854 0048 2BB9     		cbnz	r3, .L86
 855              	.LVL77:
ARM GAS  C:\Users\alexa\AppData\Local\Temp\ccWzwmKt.s 			page 16


 856              	.L68:
 857              		.loc 1 250 0
 858 004a 019A     		ldr	r2, [sp, #4]
 859 004c 2368     		ldr	r3, [r4]
 860 004e 9A42     		cmp	r2, r3
 861 0050 06D1     		bne	.L83
 862 0052 02B0     		add	sp, sp, #8
 863              		.cfi_remember_state
 864              		.cfi_def_cfa_offset 16
 865              		@ sp needed
 866 0054 70BD     		pop	{r4, r5, r6, pc}
 867              	.LVL78:
 868              	.L86:
 869              		.cfi_restore_state
 870 0056 044E     		ldr	r6, .L87+4
 871 0058 E7E7     		b	.L75
 872              	.L85:
 873              	.LBB151:
 874              	.LBB150:
 875 005a FFF7FEFF 		bl	waitSoundFileHasFinished.part.1
 876              	.LVL79:
 877 005e E4E7     		b	.L75
 878              	.LVL80:
 879              	.L83:
 880              	.LBE150:
 881              	.LBE151:
 882 0060 FFF7FEFF 		bl	__stack_chk_fail
 883              	.LVL81:
 884              	.L88:
 885              		.align	2
 886              	.L87:
 887 0064 00000000 		.word	__stack_chk_guard
 888 0068 00000000 		.word	.LANCHOR7
 889 006c 00000000 		.word	.LANCHOR9
 890              		.cfi_endproc
 891              	.LFE261:
 892              		.size	playSoundFile, .-playSoundFile
 893              		.section	.text.stopCurrentSoundFile,"ax",%progbits
 894              		.align	1
 895              		.p2align 4,,15
 896              		.global	stopCurrentSoundFile
 897              		.syntax unified
 898              		.thumb
 899              		.thumb_func
 900              		.fpu fpv4-sp-d16
 901              		.type	stopCurrentSoundFile, %function
 902              	stopCurrentSoundFile:
 903              	.LFB262:
 904              		.loc 1 252 0
 905              		.cfi_startproc
 906              		@ args = 0, pretend = 0, frame = 8
 907              		@ frame_needed = 0, uses_anonymous_args = 0
 908 0000 00B5     		push	{lr}
 909              		.cfi_def_cfa_offset 4
 910              		.cfi_offset 14, -4
 911 0002 084B     		ldr	r3, .L93
 912              		.loc 1 253 0
ARM GAS  C:\Users\alexa\AppData\Local\Temp\ccWzwmKt.s 			page 17


 913 0004 0849     		ldr	r1, .L93+4
 914              		.loc 1 252 0
 915 0006 1A68     		ldr	r2, [r3]
 916 0008 83B0     		sub	sp, sp, #12
 917              		.cfi_def_cfa_offset 16
 918              		.loc 1 253 0
 919 000a 0020     		movs	r0, #0
 920              		.loc 1 252 0
 921 000c 0192     		str	r2, [sp, #4]
 922              		.loc 1 254 0
 923 000e 019A     		ldr	r2, [sp, #4]
 924 0010 1B68     		ldr	r3, [r3]
 925              		.loc 1 253 0
 926 0012 0870     		strb	r0, [r1]
 927              		.loc 1 254 0
 928 0014 9A42     		cmp	r2, r3
 929 0016 02D1     		bne	.L92
 930 0018 03B0     		add	sp, sp, #12
 931              		.cfi_remember_state
 932              		.cfi_def_cfa_offset 4
 933              		@ sp needed
 934 001a 5DF804FB 		ldr	pc, [sp], #4
 935              	.L92:
 936              		.cfi_restore_state
 937 001e FFF7FEFF 		bl	__stack_chk_fail
 938              	.LVL82:
 939              	.L94:
 940 0022 00BF     		.align	2
 941              	.L93:
 942 0024 00000000 		.word	__stack_chk_guard
 943 0028 00000000 		.word	.LANCHOR7
 944              		.cfi_endproc
 945              	.LFE262:
 946              		.size	stopCurrentSoundFile, .-stopCurrentSoundFile
 947              		.section	.text.waitSoundFileHasFinished,"ax",%progbits
 948              		.align	1
 949              		.p2align 4,,15
 950              		.global	waitSoundFileHasFinished
 951              		.syntax unified
 952              		.thumb
 953              		.thumb_func
 954              		.fpu fpv4-sp-d16
 955              		.type	waitSoundFileHasFinished, %function
 956              	waitSoundFileHasFinished:
 957              	.LFB263:
 958              		.loc 1 256 0
 959              		.cfi_startproc
 960              		@ args = 0, pretend = 0, frame = 8
 961              		@ frame_needed = 0, uses_anonymous_args = 0
 962 0000 00B5     		push	{lr}
 963              		.cfi_def_cfa_offset 4
 964              		.cfi_offset 14, -4
 965              		.loc 1 258 0
 966 0002 0C4A     		ldr	r2, .L102
 967              		.loc 1 256 0
 968 0004 0C4B     		ldr	r3, .L102+4
 969              		.loc 1 258 0
ARM GAS  C:\Users\alexa\AppData\Local\Temp\ccWzwmKt.s 			page 18


 970 0006 1268     		ldr	r2, [r2]
 971              		.loc 1 256 0
 972 0008 1968     		ldr	r1, [r3]
 973 000a 83B0     		sub	sp, sp, #12
 974              		.cfi_def_cfa_offset 16
 975              		.loc 1 256 0
 976 000c 0191     		str	r1, [sp, #4]
 977              		.loc 1 258 0
 978 000e 32B1     		cbz	r2, .L101
 979              		.loc 1 264 0
 980 0010 019A     		ldr	r2, [sp, #4]
 981 0012 1B68     		ldr	r3, [r3]
 982 0014 9A42     		cmp	r2, r3
 983 0016 0BD1     		bne	.L100
 984 0018 03B0     		add	sp, sp, #12
 985              		.cfi_remember_state
 986              		.cfi_def_cfa_offset 4
 987              		@ sp needed
 988 001a 5DF804FB 		ldr	pc, [sp], #4
 989              	.L101:
 990              		.cfi_restore_state
 991 001e 019A     		ldr	r2, [sp, #4]
 992 0020 1B68     		ldr	r3, [r3]
 993 0022 9A42     		cmp	r2, r3
 994 0024 04D1     		bne	.L100
 995 0026 03B0     		add	sp, sp, #12
 996              		.cfi_remember_state
 997              		.cfi_def_cfa_offset 4
 998              		@ sp needed
 999 0028 5DF804EB 		ldr	lr, [sp], #4
 1000              		.cfi_restore 14
 1001              		.cfi_def_cfa_offset 0
 1002 002c FFF7FEBF 		b	waitSoundFileHasFinished.part.1
 1003              	.LVL83:
 1004              	.L100:
 1005              		.cfi_restore_state
 1006 0030 FFF7FEFF 		bl	__stack_chk_fail
 1007              	.LVL84:
 1008              	.L103:
 1009              		.align	2
 1010              	.L102:
 1011 0034 00000000 		.word	.LANCHOR9
 1012 0038 00000000 		.word	__stack_chk_guard
 1013              		.cfi_endproc
 1014              	.LFE263:
 1015              		.size	waitSoundFileHasFinished, .-waitSoundFileHasFinished
 1016              		.section	.text.setSoundFileVolume,"ax",%progbits
 1017              		.align	1
 1018              		.p2align 4,,15
 1019              		.global	setSoundFileVolume
 1020              		.syntax unified
 1021              		.thumb
 1022              		.thumb_func
 1023              		.fpu fpv4-sp-d16
 1024              		.type	setSoundFileVolume, %function
 1025              	setSoundFileVolume:
 1026              	.LFB264:
ARM GAS  C:\Users\alexa\AppData\Local\Temp\ccWzwmKt.s 			page 19


 1027              		.loc 1 266 0
 1028              		.cfi_startproc
 1029              		@ args = 0, pretend = 0, frame = 8
 1030              		@ frame_needed = 0, uses_anonymous_args = 0
 1031              	.LVL85:
 1032 0000 30B5     		push	{r4, r5, lr}
 1033              		.cfi_def_cfa_offset 12
 1034              		.cfi_offset 4, -12
 1035              		.cfi_offset 5, -8
 1036              		.cfi_offset 14, -4
 1037 0002 104D     		ldr	r5, .L115
 1038 0004 104B     		ldr	r3, .L115+4
 1039 0006 2A68     		ldr	r2, [r5]
 1040 0008 1B78     		ldrb	r3, [r3]	@ zero_extendqisi2
 1041 000a 83B0     		sub	sp, sp, #12
 1042              		.cfi_def_cfa_offset 24
 1043              		.loc 1 267 0
 1044 000c 3228     		cmp	r0, #50
 1045              		.loc 1 266 0
 1046 000e 0192     		str	r2, [sp, #4]
 1047              		.loc 1 267 0
 1048 0010 0CD9     		bls	.L105
 1049              	.LVL86:
 1050              		.loc 1 268 0
 1051 0012 3224     		movs	r4, #50
 1052              		.loc 1 273 0
 1053 0014 13B1     		cbz	r3, .L107
 1054              	.LVL87:
 1055              	.L106:
 1056              		.loc 1 277 0
 1057 0016 0120     		movs	r0, #1
 1058 0018 FFF7FEFF 		bl	dac_power_speaker
 1059              	.LVL88:
 1060              	.L107:
 1061              		.loc 1 282 0
 1062 001c 019A     		ldr	r2, [sp, #4]
 1063 001e 2B68     		ldr	r3, [r5]
 1064              		.loc 1 281 0
 1065 0020 0A49     		ldr	r1, .L115+8
 1066              		.loc 1 282 0
 1067 0022 9A42     		cmp	r2, r3
 1068              		.loc 1 281 0
 1069 0024 0C70     		strb	r4, [r1]
 1070              		.loc 1 282 0
 1071 0026 0AD1     		bne	.L114
 1072 0028 03B0     		add	sp, sp, #12
 1073              		.cfi_remember_state
 1074              		.cfi_def_cfa_offset 12
 1075              		@ sp needed
 1076 002a 30BD     		pop	{r4, r5, pc}
 1077              	.LVL89:
 1078              	.L105:
 1079              		.cfi_restore_state
 1080 002c 0446     		mov	r4, r0
 1081              		.loc 1 273 0
 1082 002e 002B     		cmp	r3, #0
 1083 0030 F4D0     		beq	.L107
ARM GAS  C:\Users\alexa\AppData\Local\Temp\ccWzwmKt.s 			page 20


 1084              		.loc 1 274 0
 1085 0032 0428     		cmp	r0, #4
 1086 0034 EFD8     		bhi	.L106
 1087              		.loc 1 275 0
 1088 0036 0020     		movs	r0, #0
 1089              	.LVL90:
 1090 0038 FFF7FEFF 		bl	dac_power_speaker
 1091              	.LVL91:
 1092 003c EEE7     		b	.L107
 1093              	.LVL92:
 1094              	.L114:
 1095              		.loc 1 282 0
 1096 003e FFF7FEFF 		bl	__stack_chk_fail
 1097              	.LVL93:
 1098              	.L116:
 1099 0042 00BF     		.align	2
 1100              	.L115:
 1101 0044 00000000 		.word	__stack_chk_guard
 1102 0048 00000000 		.word	.LANCHOR7
 1103 004c 00000000 		.word	.LANCHOR8
 1104              		.cfi_endproc
 1105              	.LFE264:
 1106              		.size	setSoundFileVolume, .-setSoundFileVolume
 1107              		.section	.bss.buffer_to_read,"aw",%nobits
 1108              		.align	2
 1109              		.set	.LANCHOR2,. + 0
 1110              		.type	buffer_to_read, %object
 1111              		.size	buffer_to_read, 4
 1112              	buffer_to_read:
 1113 0000 00000000 		.space	4
 1114              		.section	.bss.play,"aw",%nobits
 1115              		.set	.LANCHOR7,. + 0
 1116              		.type	play, %object
 1117              		.size	play, 1
 1118              	play:
 1119 0000 00       		.space	1
 1120              		.section	.bss.play_sound_file_ref,"aw",%nobits
 1121              		.align	2
 1122              		.set	.LANCHOR9,. + 0
 1123              		.type	play_sound_file_ref, %object
 1124              		.size	play_sound_file_ref, 4
 1125              	play_sound_file_ref:
 1126 0000 00000000 		.space	4
 1127              		.section	.bss.size_buffer_to_read,"aw",%nobits
 1128              		.align	2
 1129              		.set	.LANCHOR3,. + 0
 1130              		.type	size_buffer_to_read, %object
 1131              		.size	size_buffer_to_read, 4
 1132              	size_buffer_to_read:
 1133 0000 00000000 		.space	4
 1134              		.section	.bss.sound_buffer1,"aw",%nobits
 1135              		.align	2
 1136              		.set	.LANCHOR0,. + 0
 1137              		.type	sound_buffer1, %object
 1138              		.size	sound_buffer1, 512
 1139              	sound_buffer1:
 1140 0000 00000000 		.space	512
ARM GAS  C:\Users\alexa\AppData\Local\Temp\ccWzwmKt.s 			page 21


 1140      00000000 
 1140      00000000 
 1140      00000000 
 1140      00000000 
 1141              		.section	.bss.sound_buffer2,"aw",%nobits
 1142              		.align	2
 1143              		.set	.LANCHOR1,. + 0
 1144              		.type	sound_buffer2, %object
 1145              		.size	sound_buffer2, 512
 1146              	sound_buffer2:
 1147 0000 00000000 		.space	512
 1147      00000000 
 1147      00000000 
 1147      00000000 
 1147      00000000 
 1148              		.section	.bss.waPlaySoundFileThd,"aw",%nobits
 1149              		.align	3
 1150              		.set	.LANCHOR11,. + 0
 1151              		.type	waPlaySoundFileThd, %object
 1152              		.size	waPlaySoundFileThd, 1912
 1153              	waPlaySoundFileThd:
 1154 0000 00000000 		.space	1912
 1154      00000000 
 1154      00000000 
 1154      00000000 
 1154      00000000 
 1155              		.section	.data.change_buffer,"aw",%progbits
 1156              		.align	2
 1157              		.set	.LANCHOR4,. + 0
 1158              		.type	change_buffer, %object
 1159              		.size	change_buffer, 12
 1160              	change_buffer:
 1161 0000 00000000 		.word	change_buffer
 1162 0004 00000000 		.word	change_buffer
 1163 0008 00000000 		.word	0
 1164              		.section	.data.play_sound_file_condvar,"aw",%progbits
 1165              		.align	2
 1166              		.set	.LANCHOR6,. + 0
 1167              		.type	play_sound_file_condvar, %object
 1168              		.size	play_sound_file_condvar, 8
 1169              	play_sound_file_condvar:
 1170 0000 00000000 		.word	play_sound_file_condvar
 1171 0004 00000000 		.word	play_sound_file_condvar
 1172              		.section	.data.play_sound_file_lock,"aw",%progbits
 1173              		.align	2
 1174              		.set	.LANCHOR5,. + 0
 1175              		.type	play_sound_file_lock, %object
 1176              		.size	play_sound_file_lock, 20
 1177              	play_sound_file_lock:
 1178 0000 00000000 		.word	play_sound_file_lock
 1179 0004 00000000 		.word	play_sound_file_lock
 1180 0008 00000000 		.word	0
 1181 000c 00000000 		.word	0
 1182 0010 00000000 		.word	0
 1183              		.section	.data.sound_file_volume,"aw",%progbits
 1184              		.set	.LANCHOR8,. + 0
 1185              		.type	sound_file_volume, %object
ARM GAS  C:\Users\alexa\AppData\Local\Temp\ccWzwmKt.s 			page 22


 1186              		.size	sound_file_volume, 1
 1187              	sound_file_volume:
 1188 0000 0A       		.byte	10
 1189              		.section	.rodata.PlaySoundFileThd.str1.4,"aMS",%progbits,1
 1190              		.align	2
 1191              	.LC0:
 1192 0000 506C6179 		.ascii	"PlaySoundFile Thd\000"
 1192      536F756E 
 1192      6446696C 
 1192      65205468 
 1192      6400
 1193              		.section	.rodata.__func__.7153,"a",%progbits
 1194              		.align	2
 1195              		.set	.LANCHOR10,. + 0
 1196              		.type	__func__.7153, %object
 1197              		.size	__func__.7153, 12
 1198              	__func__.7153:
 1199 0000 63685379 		.ascii	"chSysUnlock\000"
 1199      73556E6C 
 1199      6F636B00 
 1200              		.text
 1201              	.Letext0:
 1202              		.file 6 "c:\\users\\alexa\\appdata\\roaming\\epuck2tools\\gcc-arm-none-eabi-7-2017-q4-major\\lib\\
 1203              		.file 7 "c:\\users\\alexa\\appdata\\roaming\\epuck2tools\\gcc-arm-none-eabi-7-2017-q4-major\\arm-n
 1204              		.file 8 "c:\\users\\alexa\\appdata\\roaming\\epuck2tools\\gcc-arm-none-eabi-7-2017-q4-major\\arm-n
 1205              		.file 9 ".//ChibiOS//os/rt/ports/ARMCMx/compilers/GCC/chtypes.h"
 1206              		.file 10 ".//ChibiOS//os/rt/include/chsystypes.h"
 1207              		.file 11 ".//ChibiOS//os/rt/include/chschd.h"
 1208              		.file 12 ".//ChibiOS//os/ext/CMSIS/include/core_cm4.h"
 1209              		.file 13 ".//ChibiOS//os/ext/CMSIS/ST/system_stm32f4xx.h"
 1210              		.file 14 ".//ChibiOS//os/ext/CMSIS/ST/stm32f407xx.h"
 1211              		.file 15 ".//ChibiOS//os/rt/ports/ARMCMx/chcore.h"
 1212              		.file 16 ".//ChibiOS//os/rt/ports/ARMCMx/chcore_v7m.h"
 1213              		.file 17 ".//ChibiOS//os/rt/include/chdebug.h"
 1214              		.file 18 ".//ChibiOS//os/rt/include/chtm.h"
 1215              		.file 19 ".//ChibiOS//os/rt/include/chstats.h"
 1216              		.file 20 ".//ChibiOS//os/rt/include/chsem.h"
 1217              		.file 21 ".//ChibiOS//os/rt/include/chmtx.h"
 1218              		.file 22 ".//ChibiOS//os/rt/include/chcond.h"
 1219              		.file 23 ".//ChibiOS//os/rt/include/chevents.h"
 1220              		.file 24 ".//ChibiOS//os/rt/include/chqueues.h"
 1221              		.file 25 ".//ChibiOS//os/hal/ports/STM32/STM32F4xx/stm32_dma.h"
 1222              		.file 26 ".//ChibiOS//os/hal/include/hal_ioblock.h"
 1223              		.file 27 ".//ChibiOS//os/hal/ports/STM32/LLD/GPIOv2/pal_lld.h"
 1224              		.file 28 ".//ChibiOS//os/hal/include/adc.h"
 1225              		.file 29 ".//ChibiOS//os/hal/ports/STM32/STM32F4xx/adc_lld.h"
 1226              		.file 30 ".//ChibiOS//os/hal/include/can.h"
 1227              		.file 31 ".//ChibiOS//os/hal/ports/STM32/LLD/can_lld.h"
 1228              		.file 32 ".//ChibiOS//os/hal/include/dac.h"
 1229              		.file 33 ".//ChibiOS//os/hal/ports/STM32/LLD/DACv1/dac_lld.h"
 1230              		.file 34 ".//ChibiOS//os/hal/include/ext.h"
 1231              		.file 35 ".//ChibiOS//os/hal/ports/STM32/LLD/ext_lld.h"
 1232              		.file 36 ".//ChibiOS//os/hal/include/gpt.h"
 1233              		.file 37 ".//ChibiOS//os/hal/ports/STM32/LLD/TIMv1/gpt_lld.h"
 1234              		.file 38 ".//ChibiOS//os/hal/ports/STM32/LLD/TIMv1/stm32_tim.h"
 1235              		.file 39 ".//ChibiOS//os/hal/include/i2c.h"
 1236              		.file 40 ".//ChibiOS//os/hal/ports/STM32/LLD/I2Cv1/i2c_lld.h"
ARM GAS  C:\Users\alexa\AppData\Local\Temp\ccWzwmKt.s 			page 23


 1237              		.file 41 ".//ChibiOS//os/hal/include/i2s.h"
 1238              		.file 42 ".//ChibiOS//os/hal/ports/STM32/LLD/SPIv1/i2s_lld.h"
 1239              		.file 43 ".//ChibiOS//os/hal/include/pwm.h"
 1240              		.file 44 ".//ChibiOS//os/hal/ports/STM32/LLD/TIMv1/pwm_lld.h"
 1241              		.file 45 ".//ChibiOS//os/hal/include/serial.h"
 1242              		.file 46 ".//ChibiOS//os/hal/ports/STM32/LLD/USARTv1/serial_lld.h"
 1243              		.file 47 ".//ChibiOS//os/hal/include/sdc.h"
 1244              		.file 48 ".//ChibiOS//os/hal/ports/STM32/LLD/sdc_lld.h"
 1245              		.file 49 ".//ChibiOS//os/hal/include/spi.h"
 1246              		.file 50 ".//ChibiOS//os/hal/ports/STM32/LLD/SPIv1/spi_lld.h"
 1247              		.file 51 ".//ChibiOS//os/hal/include/usb.h"
 1248              		.file 52 ".//ChibiOS//os/hal/ports/STM32/LLD/OTGv1/usb_lld.h"
 1249              		.file 53 ".//ChibiOS//os/hal/ports/STM32/LLD/OTGv1/stm32_otg.h"
 1250              		.file 54 ".//ChibiOS_ext//ext/fatfs/src/integer.h"
 1251              		.file 55 ".//ChibiOS_ext//ext/fatfs/src/ff.h"
 1252              		.file 56 ".//src/audio/play_sound_file.h"
 1253              		.file 57 ".//src/audio/audio_thread.h"
 1254              		.file 58 ".//src/audio/play_melody.h"
 1255              		.file 59 ".//ChibiOS//os/rt/include/chthreads.h"
 1256              		.file 60 ".//src/fat.h"